(dp0
ccopy_reg
_reconstructor
p1
(ctipTovara
tipTovara
p2
c__builtin__
object
p3
Ntp4
Rp5
(dp6
S'category'
p7
S'2'
p8
sS'name'
p9
S'1'
p10
sS'id'
p11
S'4'
p12
sbNsg1
(g2
g3
Ntp13
Rp14
(dp15
g7
S'2'
p16
sg9
S'1'
p17
sg11
S'3'
p18
sb(lp19
g1
(ctovar
tovar
p20
g3
Ntp21
Rp22
(dp23
S'date1'
p24
S'6'
p25
sS'price'
p26
S'5'
p27
sg9
S'4'
p28
sbasg1
(g2
g3
Ntp29
Rp30
(dp31
g7
S'2'
p32
sg9
S'1'
p33
sg11
S'3'
p34
sb(lp35
g1
(g20
g3
Ntp36
Rp37
(dp38
g24
S'3'
p39
sg26
S'2'
p40
sg9
S'1'
p41
sbas.