(dp0
ccopy_reg
_reconstructor
p1
(ctipTovara
tipTovara
p2
c__builtin__
object
p3
Ntp4
Rp5
(dp6
S'category'
p7
S'drinks'
p8
sS'name'
p9
S'water'
p10
sS'id'
p11
S'0'
p12
sb(lp13
g1
(ctovar
tovar
p14
g3
Ntp15
Rp16
(dp17
S'date1'
p18
S'6'
p19
sS'price'
p20
S'5'
p21
sg9
S'4'
p22
sbas.